(lp1
I80
aI95
aI112
aI190
aI87
aI84
aI123
aI275
a.(lp1
I152
aI143
aI205
aI281
aI109
aI75
aI203
aI382
a.(lp1
(lp2
F1.53
aF0.91999999999999993
aF1.73
aF0.91999999999999993
aF1.3799999999999999
aF0.88
aF0.85999999999999999
aF1.9299999999999999
aF0.84999999999999998
aF0.85999999999999999
aa(lp3
F1.6100000000000001
aF0.76000000000000001
aF1.8200000000000001
aF0.90999999999999992
aF1.46
aF0.73999999999999999
aF0.81000000000000005
aF2.0300000000000002
aF0.76000000000000001
aF0.75
aa(lp4
F1.55
aF0.87
aF1.76
aF0.90999999999999992
aF1.3999999999999999
aF0.84000000000000008
aF0.84000000000000008
aF1.96
aF0.82000000000000006
aF0.82000000000000006
aa(lp5
F1.4399999999999999
aF1.3
aF1.6000000000000001
aF1.1299999999999999
aF1.3300000000000001
aF1.25
aF1.1600000000000001
aF1.78
aF1.1899999999999999
aF1.21
aa(lp6
F1.49
aF1.03
aF1.6799999999999999
aF0.95999999999999996
aF1.3500000000000001
aF0.98999999999999999
aF0.93999999999999995
aF1.8799999999999999
aF0.94999999999999996
aF0.95999999999999996
aa(lp7
F1.45
aF1.51
aF1.5900000000000001
aF1.3
aF1.3700000000000001
aF1.46
aF1.3500000000000001
aF1.74
aF1.3900000000000001
aF1.4100000000000001
aa(lp8
F1.53
aF0.91999999999999993
aF1.73
aF0.91999999999999993
aF1.3799999999999999
aF0.89000000000000001
aF0.87
aF1.9299999999999999
aF0.85999999999999999
aF0.85999999999999999
aa(lp9
F1.48
aF1.6299999999999999
aF1.5900000000000001
aF1.4100000000000001
aF1.4100000000000001
aF1.5800000000000001
aF1.46
aF1.73
aF1.5
aF1.52
aa.(lp1
(lp2
I9
aI38
aI79
aI83
aI21
aI140
aI22
aI38
aI52
aI71
aa(lp3
I9
aI27
aI50
aI81
aI16
aI67
aI12
aI27
aI33
aI67
aa(lp4
I12
aI48
aI114
aI97
aI27
aI136
aI18
aI46
aI50
aI68
aa(lp5
I6
aI33
aI83
aI60
aI20
aI84
aI13
aI24
aI32
aI62
aa(lp6
I8
aI53
aI79
aI123
aI27
aI83
aI17
aI33
aI41
aI47
aa(lp7
I8
aI27
aI115
aI36
aI16
aI85
aI13
aI25
aI40
aI50
aa(lp8
I13
aI106
aI141
aI71
aI30
aI147
aI18
aI50
aI47
aI132
aa(lp9
I8
aI43
aI85
aI69
aI21
aI125
aI19
aI11
aI42
aI83
aa(lp10
I12
aI53
aI108
aI97
aI27
aI136
aI18
aI14
aI34
aI75
aa(lp11
I6
aI30
aI68
aI49
aI12
aI69
aI11
aI24
aI35
aI39
aa(lp12
I14
aI83
aI82
aI136
aI27
aI81
aI34
aI50
aI75
aI128
aa(lp13
I11
aI49
aI51
aI97
aI15
aI98
aI8
aI21
aI39
aI59
aa(lp14
I11
aI82
aI159
aI159
aI40
aI72
aI37
aI64
aI93
aI63
aa(lp15
I15
aI84
aI75
aI170
aI30
aI159
aI17
aI50
aI100
aI105
aa(lp16
I10
aI95
aI115
aI77
aI21
aI93
aI23
aI41
aI64
aI74
aa(lp17
I8
aI46
aI80
aI134
aI34
aI117
aI18
aI36
aI59
aI57
aa(lp18
I6
aI41
aI87
aI75
aI28
aI51
aI14
aI32
aI32
aI82
aa(lp19
I16
aI109
aI145
aI130
aI45
aI233
aI29
aI59
aI84
aI103
aa(lp20
I12
aI51
aI87
aI94
aI9
aI129
aI17
aI47
aI50
aI53
aa(lp21
I24
aI83
aI151
aI71
aI24
aI181
aI19
aI50
aI48
aI132
aa(lp22
I10
aI63
aI88
aI71
aI18
aI109
aI10
aI25
aI48
aI55
aa(lp23
I9
aI39
aI130
aI104
aI21
aI122
aI14
aI46
aI47
aI98
aa(lp24
I8
aI68
aI79
aI53
aI36
aI107
aI14
aI37
aI70
aI73
aa(lp25
I10
aI47
aI86
aI87
aI17
aI95
aI11
aI22
aI37
aI70
aa(lp26
I10
aI32
aI93
aI79
aI26
aI114
aI23
aI28
aI34
aI80
aa(lp27
I7
aI38
aI41
aI65
aI7
aI90
aI11
aI15
aI56
aI29
aa(lp28
I13
aI31
aI183
aI106
aI40
aI164
aI13
aI46
aI67
aI101
aa(lp29
I17
aI43
aI126
aI151
aI22
aI207
aI19
aI30
aI98
aI96
aa(lp30
I14
aI105
aI162
aI89
aI20
aI118
aI11
aI30
aI55
aI97
aa(lp31
I5
aI38
aI106
aI59
aI8
aI88
aI10
aI23
aI39
aI43
aa(lp32
I19
aI56
aI92
aI127
aI52
aI141
aI33
aI66
aI84
aI120
aa(lp33
I13
aI69
aI80
aI89
aI17
aI70
aI19
aI18
aI58
aI46
aa(lp34
I9
aI70
aI127
aI100
aI33
aI150
aI22
aI36
aI83
aI69
aa(lp35
I19
aI56
aI206
aI122
aI39
aI155
aI27
aI36
aI85
aI112
aa(lp36
I11
aI43
aI72
aI55
aI14
aI65
aI18
aI19
aI51
aI79
aa(lp37
I7
aI70
aI128
aI112
aI31
aI79
aI16
aI34
aI53
aI79
aa(lp38
I19
aI89
aI149
aI159
aI34
aI141
aI21
aI47
aI71
aI93
aa(lp39
I11
aI41
aI150
aI135
aI18
aI149
aI22
aI24
aI46
aI102
aa(lp40
I11
aI91
aI130
aI85
aI42
aI99
aI8
aI52
aI80
aI89
aa(lp41
I12
aI101
aI184
aI128
aI24
aI183
aI27
aI45
aI87
aI138
aa(lp42
I12
aI45
aI60
aI34
aI15
aI58
aI12
aI27
aI38
aI58
aa(lp43
I13
aI55
aI117
aI168
aI35
aI118
aI24
aI43
aI55
aI62
aa(lp44
I11
aI80
aI127
aI93
aI37
aI182
aI15
aI35
aI49
aI94
aa(lp45
I24
aI90
aI191
aI177
aI47
aI164
aI21
aI24
aI81
aI150
aa(lp46
I9
aI47
aI64
aI72
aI18
aI68
aI11
aI18
aI32
aI74
aa(lp47
I3
aI55
aI84
aI59
aI19
aI93
aI14
aI9
aI41
aI87
aa(lp48
I6
aI43
aI98
aI65
aI10
aI95
aI13
aI12
aI35
aI58
aa(lp49
I10
aI95
aI144
aI146
aI45
aI154
aI24
aI44
aI71
aI107
aa(lp50
I9
aI58
aI64
aI44
aI23
aI105
aI7
aI45
aI54
aI80
aa(lp51
I18
aI57
aI71
aI133
aI12
aI120
aI30
aI40
aI80
aI121
aa(lp52
I11
aI36
aI94
aI40
aI18
aI71
aI11
aI29
aI39
aI63
aa(lp53
I10
aI41
aI79
aI41
aI25
aI74
aI14
aI17
aI45
aI65
aa(lp54
I6
aI51
aI91
aI74
aI21
aI131
aI16
aI25
aI50
aI81
aa(lp55
I14
aI106
aI119
aI247
aI44
aI177
aI33
aI59
aI38
aI129
aa(lp56
I15
aI66
aI125
aI150
aI19
aI114
aI14
aI27
aI71
aI67
aa(lp57
I13
aI40
aI44
aI119
aI13
aI38
aI11
aI31
aI44
aI32
aa(lp58
I8
aI102
aI129
aI87
aI39
aI160
aI24
aI22
aI83
aI117
aa(lp59
I13
aI38
aI139
aI1
aI7
aI89
aI16
aI24
aI49
aI84
aa(lp60
I15
aI93
aI193
aI89
aI28
aI133
aI9
aI19
aI65
aI112
aa(lp61
I8
aI112
aI179
aI115
aI34
aI200
aI23
aI44
aI95
aI126
aa(lp62
I7
aI45
aI61
aI52
aI15
aI56
aI10
aI30
aI54
aI54
aa(lp63
I15
aI28
aI126
aI109
aI40
aI109
aI18
aI37
aI82
aI129
aa(lp64
I13
aI84
aI68
aI97
aI32
aI80
aI22
aI42
aI41
aI57
aa(lp65
I13
aI49
aI86
aI77
aI36
aI124
aI20
aI41
aI57
aI106
aa(lp66
I15
aI101
aI143
aI212
aI7
aI98
aI17
aI51
aI103
aI159
aa(lp67
I9
aI58
aI115
aI113
aI22
aI128
aI19
aI34
aI62
aI113
aa(lp68
I12
aI68
aI133
aI172
aI19
aI115
aI35
aI31
aI62
aI98
aa(lp69
I19
aI49
aI192
aI180
aI21
aI153
aI39
aI49
aI90
aI149
aa(lp70
I10
aI61
aI82
aI97
aI19
aI94
aI18
aI23
aI44
aI83
aa(lp71
I6
aI37
aI57
aI61
aI12
aI60
aI8
aI28
aI51
aI48
aa(lp72
I14
aI57
aI214
aI87
aI40
aI174
aI14
aI47
aI76
aI72
aa(lp73
I3
aI33
aI52
aI72
aI19
aI53
aI9
aI23
aI24
aI59
aa(lp74
I10
aI32
aI116
aI121
aI22
aI127
aI18
aI57
aI48
aI49
aa(lp75
I10
aI82
aI92
aI108
aI28
aI131
aI23
aI44
aI79
aI69
aa(lp76
I7
aI50
aI121
aI24
aI18
aI113
aI14
aI12
aI25
aI79
aa(lp77
I8
aI68
aI164
aI161
aI29
aI138
aI19
aI53
aI61
aI111
aa(lp78
I22
aI89
aI144
aI127
aI62
aI146
aI33
aI43
aI83
aI87
aa(lp79
I10
aI41
aI94
aI102
aI28
aI90
aI15
aI25
aI51
aI96
aa(lp80
I21
aI81
aI149
aI121
aI36
aI179
aI29
aI51
aI33
aI97
aa(lp81
I15
aI70
aI91
aI144
aI40
aI146
aI17
aI43
aI94
aI90
aa(lp82
I9
aI41
aI56
aI106
aI18
aI87
aI16
aI15
aI20
aI80
aa(lp83
I8
aI53
aI102
aI54
aI15
aI78
aI11
aI40
aI52
aI68
aa(lp84
I12
aI54
aI130
aI94
aI35
aI148
aI20
aI38
aI64
aI127
aa(lp85
I13
aI43
aI98
aI131
aI28
aI77
aI18
aI24
aI38
aI86
aa(lp86
I17
aI84
aI167
aI119
aI31
aI137
aI35
aI55
aI77
aI117
aa(lp87
I16
aI86
aI70
aI212
aI36
aI228
aI24
aI56
aI63
aI57
aa(lp88
I8
aI41
aI78
aI41
aI27
aI39
aI16
aI32
aI18
aI67
aa(lp89
I8
aI72
aI87
aI74
aI34
aI68
aI12
aI25
aI75
aI85
aa(lp90
I10
aI57
aI135
aI117
aI28
aI97
aI15
aI41
aI86
aI85
aa(lp91
I7
aI48
aI80
aI99
aI24
aI83
aI12
aI18
aI27
aI63
aa(lp92
I12
aI72
aI128
aI59
aI30
aI141
aI16
aI32
aI56
aI75
aa(lp93
I7
aI55
aI57
aI34
aI19
aI59
aI8
aI16
aI42
aI67
aa(lp94
I17
aI109
aI157
aI189
aI30
aI92
aI24
aI57
aI66
aI97
aa(lp95
I19
aI64
aI149
aI59
aI29
aI157
aI30
aI40
aI85
aI124
aa(lp96
I11
aI60
aI90
aI108
aI22
aI91
aI19
aI24
aI59
aI68
aa(lp97
I14
aI75
aI99
aI142
aI26
aI138
aI26
aI34
aI47
aI56
aa(lp98
I12
aI90
aI204
aI103
aI37
aI115
aI14
aI38
aI77
aI107
aa(lp99
I13
aI60
aI141
aI165
aI36
aI203
aI27
aI46
aI98
aI96
aa(lp100
I11
aI75
aI138
aI103
aI51
aI195
aI17
aI30
aI62
aI96
aa(lp101
I10
aI81
aI133
aI133
aI32
aI128
aI21
aI29
aI46
aI99
aa.(lp1
I10
aI10
aI10
aI10
aI10
aI10
aI10
aI10
aI10
aI10
a.