(lp1
S'B0'
p2
aS'B1'
p3
aS'B2'
p4
aS'B3'
p5
a.(lp1
S'F0'
p2
aS'F1'
p3
aS'F2'
p4
aS'F3'
p5
aS'F4'
p6
aS'F5'
p7
aS'F6'
p8
aS'F7'
p9
aS'F8'
p10
aS'F9'
p11
a.(lp1
S'S0'
p2
aS'S1'
p3
aS'S2'
p4
aS'S3'
p5
aS'S4'
p6
aS'S5'
p7
aS'S6'
p8
aS'S7'
p9
aS'S8'
p10
aS'S9'
p11
aS'S10'
p12
aS'S11'
p13
aS'S12'
p14
aS'S13'
p15
aS'S14'
p16
aS'S15'
p17
aS'S16'
p18
aS'S17'
p19
aS'S18'
p20
aS'S19'
p21
aS'S20'
p22
aS'S21'
p23
aS'S22'
p24
aS'S23'
p25
aS'S24'
p26
aS'S25'
p27
aS'S26'
p28
aS'S27'
p29
aS'S28'
p30
aS'S29'
p31
aS'S30'
p32
aS'S30'
p33
aS'S30'
p34
aS'S30'
p35
aS'S30'
p36
aS'S30'
p37
aS'S30'
p38
aS'S30'
p39
aS'S30'
p40
aS'S30'
p41
aS'S30'
p42
aS'S30'
p43
aS'S30'
p44
aS'S30'
p45
aS'S30'
p46
aS'S30'
p47
aS'S30'
p48
aS'S30'
p49
aS'S30'
p50
aS'S30'
p51
a.(dp1
(S'B2'
p2
S'B0'
p3
tp4
F1
s(g3
S'B3'
p5
tp6
F1.1000000000000001
s(S'B1'
p7
g5
tp8
F1.8
s(g2
g5
tp9
F1.2
s(g7
g7
tp10
F0
s(g2
g2
tp11
F0
s(g3
g7
tp12
F1.6000000000000001
s(g5
g2
tp13
F1.1000000000000001
s(g3
g3
tp14
F0
s(g7
g3
tp15
F1.7
s(g5
g5
tp16
F0
s(g5
g3
tp17
F1.6000000000000001
s(g7
g2
tp18
F1.3999999999999999
s(g5
g7
tp19
F1.6000000000000001
s(g2
g7
tp20
F1.6000000000000001
s(g3
g2
tp21
F1.3999999999999999
s.(dp1
S'B0'
p2
I200
sS'B1'
p3
I200
sS'B2'
p4
I200
sS'B3'
p5
I200
s.(dp1
S'B0'
p2
I19
sS'B1'
p3
I25
sS'B2'
p4
I15
sS'B3'
p5
I0
s.(dp1
S'F0'
p2
(lp3
S'B3'
p4
asS'F1'
p5
(lp6
S'B0'
p7
asS'F2'
p8
(lp9
g7
aS'B1'
p10
asS'F3'
p11
(lp12
g10
asS'F4'
p13
(lp14
g7
asS'F5'
p15
(lp16
g10
ag4
asS'F6'
p17
(lp18
g7
ag10
ag4
asS'F7'
p19
(lp20
g7
asS'F8'
p21
(lp22
g10
asS'F9'
p23
(lp24
g7
as.(dp1
(S'S7'
p2
S'F2'
p3
tp4
F8.8173808492568035
s(S'S2'
p5
S'F0'
p6
tp7
F7.3914242287756933
s(S'S30'
p8
cnumpy.core.multiarray
scalar
p9
(cnumpy
dtype
p10
(S'S2'
I0
I1
tRp11
(I3
S'|'
NNNI2
I1
I0
tbS'F2'
tRp12
tp13
F12.846927125675911
s(S'S30'
p14
g9
(g10
(S'S2'
I0
I1
tRp15
(I3
S'|'
NNNI2
I1
I0
tbS'F8'
tRp16
tp17
F10.437187531827199
s(S'S3'
p18
S'F1'
p19
tp20
F8.3047002487717734
s(S'S16'
p21
S'F5'
p22
tp23
F8.815035073480562
s(S'S30'
p24
g9
(g10
(S'S2'
I0
I1
tRp25
(I3
S'|'
NNNI2
I1
I0
tbS'F6'
tRp26
tp27
F12.554627377047757
s(S'S24'
p28
S'F8'
p29
tp30
F5.2352452927272131
s(S'S1'
p31
g6
tp32
F7.0584242287756931
s(S'S30'
p33
g9
(g10
(S'S2'
I0
I1
tRp34
(I3
S'|'
NNNI2
I1
I0
tbS'F1'
tRp35
tp36
F7.630441649152206
s(S'S6'
p37
g3
tp38
F8.4843808492568034
s(S'S15'
p39
g22
tp40
F8.4820350734805618
s(S'S25'
p41
g29
tp42
F5.5682452927272132
s(S'S10'
p43
S'F3'
p44
tp45
F6.9385912870617048
s(S'S28'
p46
S'F9'
p47
tp48
F7.3269108025001115
s(S'S4'
p49
g19
tp50
F8.6377002487717736
s(S'S0'
p51
g6
tp52
F6.7254242287756929
s(S'S27'
p53
g47
tp54
F6.9939108025001113
s(S'S20'
p55
S'F6'
p56
tp57
F6.8736982126527595
s(S'S18'
p58
g56
tp59
F6.2076982126527591
s(S'S26'
p60
g29
tp61
F5.9012452927272134
s(S'S14'
p62
S'F4'
p63
tp64
F7.095492139471598
s(g33
g9
(g10
(S'S2'
I0
I1
tRp65
(I3
S'|'
NNNI2
I1
I0
tbS'F9'
tRp66
tp67
F9.6183435675996556
s(S'S29'
p68
g47
tp69
F7.6599108025001117
s(S'S30'
p70
g9
(g10
(S'S2'
I0
I1
tRp71
(I3
S'|'
NNNI2
I1
I0
tbS'F0'
tRp72
tp73
F8.5449933613096611
s(S'S13'
p74
g63
tp75
F6.7624921394715978
s(S'S19'
p76
g56
tp77
F6.5406982126527593
s(S'S21'
p78
S'F7'
p79
tp80
F4.7862182284861081
s(g24
g9
(g10
(S'S2'
I0
I1
tRp81
(I3
S'|'
NNNI2
I1
I0
tbS'F4'
tRp82
tp83
F14.609693659618475
s(S'S17'
p84
g22
tp85
F9.1480350734805622
s(S'S5'
p86
g19
tp87
F8.9707002487717737
s(S'S12'
p88
g63
tp89
F6.4294921394715976
s(S'S11'
p90
g44
tp91
F7.271591287061705
s(S'S8'
p92
g3
tp93
F9.1503808492568037
s(S'S23'
p94
g79
tp95
F5.4522182284861085
s(S'S30'
p96
g9
(g10
(S'S2'
I0
I1
tRp97
(I3
S'|'
NNNI2
I1
I0
tbS'F3'
tRp98
tp99
F9.2843499918618058
s(S'S30'
p100
g9
(g10
(S'S2'
I0
I1
tRp101
(I3
S'|'
NNNI2
I1
I0
tbS'F7'
tRp102
tp103
F12.453054282120821
s(S'S9'
p104
g44
tp105
F6.6055912870617046
s(g14
g9
(g10
(S'S2'
I0
I1
tRp106
(I3
S'|'
NNNI2
I1
I0
tbS'F5'
tRp107
tp108
F13.700096061210603
s(S'S22'
p109
g79
tp110
F5.1192182284861083
s.(dp1
(S'S7'
p2
S'F2'
p3
tp4
F1.1872841932686244
s(S'S2'
p5
S'F0'
p6
tp7
F1.8972923421625698
s(S'S30'
p8
cnumpy.core.multiarray
scalar
p9
(cnumpy
dtype
p10
(S'S2'
I0
I1
tRp11
(I3
S'|'
NNNI2
I1
I0
tbS'F2'
tRp12
tp13
F1.5980623201500324
s(S'S30'
p14
g9
(g10
(S'S2'
I0
I1
tRp15
(I3
S'|'
NNNI2
I1
I0
tbS'F8'
tRp16
tp17
F1.2373327329286856
s(S'S3'
p18
S'F1'
p19
tp20
F0.79590426741409059
s(S'S16'
p21
S'F5'
p22
tp23
F1.1023444633394215
s(S'S30'
p24
g9
(g10
(S'S2'
I0
I1
tRp25
(I3
S'|'
NNNI2
I1
I0
tbS'F6'
tRp26
tp27
F1.1412749101731814
s(S'S24'
p28
S'F8'
p29
tp30
F0.61611259085280179
s(S'S1'
p31
g6
tp32
F1.3972923421625698
s(S'S30'
p33
g9
(g10
(S'S2'
I0
I1
tRp34
(I3
S'|'
NNNI2
I1
I0
tbS'F1'
tRp35
tp36
F1.7284351352183414
s(S'S6'
p37
g3
tp38
F0.68728419326862444
s(S'S15'
p39
g22
tp40
F0.60234446333942138
s(S'S25'
p41
g29
tp42
F1.1161125908528018
s(S'S10'
p43
S'F3'
p44
tp45
F1.0041924864748164
s(S'S28'
p46
S'F9'
p47
tp48
F1.2663190014842081
s(S'S4'
p49
g19
tp50
F1.2959042674140906
s(S'S0'
p51
g6
tp52
F0.89729234216256981
s(S'S27'
p53
g47
tp54
F0.76631900148420795
s(S'S20'
p55
S'F6'
p56
tp57
F1.5873849392799229
s(S'S18'
p58
g56
tp59
F0.58738493927992286
s(S'S26'
p60
g29
tp61
F1.6161125908528018
s(S'S14'
p62
S'F4'
p63
tp64
F1.5087964973148724
s(g33
g9
(g10
(S'S2'
I0
I1
tRp65
(I3
S'|'
NNNI2
I1
I0
tbS'F9'
tRp66
tp67
F1.9356875733242798
s(S'S29'
p68
g47
tp69
F1.7663190014842081
s(S'S30'
p70
g9
(g10
(S'S2'
I0
I1
tRp71
(I3
S'|'
NNNI2
I1
I0
tbS'F0'
tRp72
tp73
F1.6461352402638285
s(S'S13'
p74
g63
tp75
F1.0087964973148724
s(S'S19'
p76
g56
tp77
F1.0873849392799229
s(S'S21'
p78
S'F7'
p79
tp80
F0.50594731386431824
s(g24
g9
(g10
(S'S2'
I0
I1
tRp81
(I3
S'|'
NNNI2
I1
I0
tbS'F4'
tRp82
tp83
F1.506491664149211
s(S'S17'
p84
g22
tp85
F1.6023444633394215
s(S'S5'
p86
g19
tp87
F1.7959042674140906
s(S'S12'
p88
g63
tp89
F0.50879649731487242
s(S'S11'
p90
g44
tp91
F1.5041924864748164
s(S'S8'
p92
g3
tp93
F1.6872841932686244
s(S'S23'
p94
g79
tp95
F1.5059473138643182
s(S'S30'
p96
g9
(g10
(S'S2'
I0
I1
tRp97
(I3
S'|'
NNNI2
I1
I0
tbS'F3'
tRp98
tp99
F1.8080753482771414
s(S'S30'
p100
g9
(g10
(S'S2'
I0
I1
tRp101
(I3
S'|'
NNNI2
I1
I0
tbS'F7'
tRp102
tp103
F1.1226071595609415
s(S'S9'
p104
g44
tp105
F0.5041924864748164
s(g14
g9
(g10
(S'S2'
I0
I1
tRp106
(I3
S'|'
NNNI2
I1
I0
tbS'F5'
tRp107
tp108
F1.3906180448621028
s(S'S22'
p109
g79
tp110
F1.0059473138643182
s.