(lp1
S'B0'
p2
aS'B1'
p3
aS'B2'
p4
aS'B3'
p5
a.(lp1
S'F0'
p2
aS'F1'
p3
aS'F2'
p4
aS'F3'
p5
aS'F4'
p6
aS'F5'
p7
aS'F6'
p8
aS'F7'
p9
aS'F8'
p10
aS'F9'
p11
a.(lp1
S'S0'
p2
aS'S1'
p3
aS'S2'
p4
aS'S3'
p5
aS'S4'
p6
aS'S5'
p7
aS'S6'
p8
aS'S7'
p9
aS'S8'
p10
aS'S9'
p11
aS'S10'
p12
aS'S11'
p13
aS'S12'
p14
aS'S13'
p15
aS'S14'
p16
aS'S15'
p17
aS'S16'
p18
aS'S17'
p19
aS'S18'
p20
aS'S19'
p21
aS'S20'
p22
aS'S21'
p23
aS'S22'
p24
aS'S23'
p25
aS'S24'
p26
aS'S25'
p27
aS'S26'
p28
aS'S27'
p29
aS'S28'
p30
aS'S29'
p31
aS'S30'
p32
a.(dp1
(S'B2'
p2
S'B0'
p3
tp4
F1
s(g3
S'B3'
p5
tp6
F1.1000000000000001
s(g3
g3
tp7
F0
s(g2
g5
tp8
F1.2
s(S'B1'
p9
g9
tp10
F0
s(g2
g2
tp11
F0
s(g3
g9
tp12
F1.6000000000000001
s(g5
g2
tp13
F1.1000000000000001
s(g9
g5
tp14
F1.8
s(g9
g3
tp15
F1.7
s(g5
g5
tp16
F0
s(g5
g3
tp17
F1.6000000000000001
s(g9
g2
tp18
F1.3999999999999999
s(g5
g9
tp19
F1.6000000000000001
s(g2
g9
tp20
F1.6000000000000001
s(g3
g2
tp21
F1.3999999999999999
s.(dp1
S'B0'
p2
I200
sS'B1'
p3
I200
sS'B2'
p4
I200
sS'B3'
p5
I200
s.(dp1
S'B0'
p2
I19
sS'B1'
p3
I25
sS'B2'
p4
I15
sS'B3'
p5
I0
s.(dp1
S'F0'
p2
(lp3
S'B3'
p4
asS'F1'
p5
(lp6
S'B0'
p7
asS'F2'
p8
(lp9
g7
aS'B1'
p10
asS'F3'
p11
(lp12
g10
asS'F4'
p13
(lp14
g7
asS'F5'
p15
(lp16
g10
ag4
asS'F6'
p17
(lp18
g7
ag10
ag4
asS'F7'
p19
(lp20
g7
asS'F8'
p21
(lp22
g10
asS'F9'
p23
(lp24
g7
as.(dp1
(S'S7'
S'F2'
p2
tp3
F8.8173808492568035
s(S'S2'
S'F0'
p4
tp5
F7.3914242287756933
s(S'S30'
cnumpy.core.multiarray
scalar
p6
(cnumpy
dtype
p7
(S'S2'
I0
I1
tRp8
(I3
S'|'
NNNI2
I1
I0
tbS'F2'
tRp9
tp10
F12.846927125675911
s(S'S12'
S'F4'
p11
tp12
F6.4294921394715976
s(S'S3'
S'F1'
p13
tp14
F8.3047002487717734
s(S'S10'
S'F3'
p15
tp16
F6.9385912870617048
s(S'S30'
p17
g6
(g7
(S'S2'
I0
I1
tRp18
(I3
S'|'
NNNI2
I1
I0
tbS'F6'
tRp19
tp20
F12.554627377047757
s(S'S24'
S'F8'
p21
tp22
F5.2352452927272131
s(S'S1'
g4
tp23
F7.0584242287756931
s(S'S30'
p24
g6
(g7
(S'S2'
I0
I1
tRp25
(I3
S'|'
NNNI2
I1
I0
tbS'F1'
tRp26
tp27
F7.630441649152206
s(S'S6'
g2
tp28
F8.4843808492568034
s(S'S15'
S'F5'
p29
tp30
F8.4820350734805618
s(S'S25'
g21
tp31
F5.5682452927272132
s(S'S16'
g29
tp32
F8.815035073480562
s(S'S28'
S'F9'
p33
tp34
F7.3269108025001115
s(S'S4'
g13
tp35
F8.6377002487717736
s(S'S0'
g4
tp36
F6.7254242287756929
s(S'S27'
g33
tp37
F6.9939108025001113
s(S'S20'
S'F6'
p38
tp39
F6.8736982126527595
s(S'S18'
g38
tp40
F6.2076982126527591
s(S'S26'
g21
tp41
F5.9012452927272134
s(S'S14'
g11
tp42
F7.095492139471598
s(g24
g6
(g7
(S'S2'
I0
I1
tRp43
(I3
S'|'
NNNI2
I1
I0
tbS'F9'
tRp44
tp45
F9.6183435675996556
s(S'S29'
g33
tp46
F7.6599108025001117
s(S'S30'
g6
(g7
(S'S2'
I0
I1
tRp47
(I3
S'|'
NNNI2
I1
I0
tbS'F0'
tRp48
tp49
F8.5449933613096611
s(S'S13'
g11
tp50
F6.7624921394715978
s(S'S19'
g38
tp51
F6.5406982126527593
s(S'S21'
S'F7'
p52
tp53
F4.7862182284861081
s(g17
g6
(g7
(S'S2'
I0
I1
tRp54
(I3
S'|'
NNNI2
I1
I0
tbS'F4'
tRp55
tp56
F14.609693659618475
s(S'S17'
g29
tp57
F9.1480350734805622
s(S'S5'
g13
tp58
F8.9707002487717737
s(S'S30'
p59
g6
(g7
(S'S2'
I0
I1
tRp60
(I3
S'|'
NNNI2
I1
I0
tbS'F8'
tRp61
tp62
F10.437187531827199
s(S'S11'
g15
tp63
F7.271591287061705
s(S'S8'
g2
tp64
F9.1503808492568037
s(S'S23'
g52
tp65
F5.4522182284861085
s(S'S30'
g6
(g7
(S'S2'
I0
I1
tRp66
(I3
S'|'
NNNI2
I1
I0
tbS'F3'
tRp67
tp68
F9.2843499918618058
s(S'S30'
g6
(g7
(S'S2'
I0
I1
tRp69
(I3
S'|'
NNNI2
I1
I0
tbS'F7'
tRp70
tp71
F12.453054282120821
s(S'S9'
g15
tp72
F6.6055912870617046
s(g59
g6
(g7
(S'S2'
I0
I1
tRp73
(I3
S'|'
NNNI2
I1
I0
tbS'F5'
tRp74
tp75
F13.700096061210603
s(S'S22'
g52
tp76
F5.1192182284861083
s.(dp1
(S'S7'
S'F2'
p2
tp3
F1.1872841932686244
s(S'S2'
S'F0'
p4
tp5
F1.8972923421625698
s(S'S30'
cnumpy.core.multiarray
scalar
p6
(cnumpy
dtype
p7
(S'S2'
I0
I1
tRp8
(I3
S'|'
NNNI2
I1
I0
tbS'F2'
tRp9
tp10
F1.5980623201500324
s(S'S12'
S'F4'
p11
tp12
F0.50879649731487242
s(S'S3'
S'F1'
p13
tp14
F0.79590426741409059
s(S'S10'
S'F3'
p15
tp16
F1.0041924864748164
s(S'S30'
p17
g6
(g7
(S'S2'
I0
I1
tRp18
(I3
S'|'
NNNI2
I1
I0
tbS'F6'
tRp19
tp20
F1.1412749101731814
s(S'S24'
S'F8'
p21
tp22
F0.61611259085280179
s(S'S1'
g4
tp23
F1.3972923421625698
s(S'S30'
p24
g6
(g7
(S'S2'
I0
I1
tRp25
(I3
S'|'
NNNI2
I1
I0
tbS'F1'
tRp26
tp27
F1.7284351352183414
s(S'S6'
g2
tp28
F0.68728419326862444
s(S'S15'
S'F5'
p29
tp30
F0.60234446333942138
s(S'S25'
g21
tp31
F1.1161125908528018
s(S'S16'
g29
tp32
F1.1023444633394215
s(S'S28'
S'F9'
p33
tp34
F1.2663190014842081
s(S'S4'
g13
tp35
F1.2959042674140906
s(S'S0'
g4
tp36
F0.89729234216256981
s(S'S27'
g33
tp37
F0.76631900148420795
s(S'S20'
S'F6'
p38
tp39
F1.5873849392799229
s(S'S18'
g38
tp40
F0.58738493927992286
s(S'S26'
g21
tp41
F1.6161125908528018
s(S'S14'
g11
tp42
F1.5087964973148724
s(g24
g6
(g7
(S'S2'
I0
I1
tRp43
(I3
S'|'
NNNI2
I1
I0
tbS'F9'
tRp44
tp45
F1.9356875733242798
s(S'S29'
g33
tp46
F1.7663190014842081
s(S'S30'
g6
(g7
(S'S2'
I0
I1
tRp47
(I3
S'|'
NNNI2
I1
I0
tbS'F0'
tRp48
tp49
F1.6461352402638285
s(S'S13'
g11
tp50
F1.0087964973148724
s(S'S19'
g38
tp51
F1.0873849392799229
s(S'S21'
S'F7'
p52
tp53
F0.50594731386431824
s(g17
g6
(g7
(S'S2'
I0
I1
tRp54
(I3
S'|'
NNNI2
I1
I0
tbS'F4'
tRp55
tp56
F1.506491664149211
s(S'S17'
g29
tp57
F1.6023444633394215
s(S'S5'
g13
tp58
F1.7959042674140906
s(S'S30'
p59
g6
(g7
(S'S2'
I0
I1
tRp60
(I3
S'|'
NNNI2
I1
I0
tbS'F8'
tRp61
tp62
F1.2373327329286856
s(S'S11'
g15
tp63
F1.5041924864748164
s(S'S8'
g2
tp64
F1.6872841932686244
s(S'S23'
g52
tp65
F1.5059473138643182
s(S'S30'
g6
(g7
(S'S2'
I0
I1
tRp66
(I3
S'|'
NNNI2
I1
I0
tbS'F3'
tRp67
tp68
F1.8080753482771414
s(S'S30'
g6
(g7
(S'S2'
I0
I1
tRp69
(I3
S'|'
NNNI2
I1
I0
tbS'F7'
tRp70
tp71
F1.1226071595609415
s(S'S9'
g15
tp72
F0.5041924864748164
s(g59
g6
(g7
(S'S2'
I0
I1
tRp73
(I3
S'|'
NNNI2
I1
I0
tbS'F5'
tRp74
tp75
F1.3906180448621028
s(S'S22'
g52
tp76
F1.0059473138643182
s.