(lp1
S'F0'
p2
aS'F1'
p3
aS'F2'
p4
aS'F3'
p5
aS'F4'
p6
aS'F5'
p7
aS'F6'
p8
aS'F7'
p9
a.(lp1
S'H0'
p2
aS'H1'
p3
aS'H2'
p4
aS'H3'
p5
a.(lp1
S'C0'
p2
aS'C1'
p3
aS'C2'
p4
aS'C3'
p5
aS'C4'
p6
aS'C5'
p7
aS'C6'
p8
aS'C7'
p9
a.(dp1
(S'H0'
p2
S'C4'
p3
tp4
F8.8000000000000007
s(S'F4'
p5
g2
tp6
F16.199999999999999
s(S'H1'
p7
S'C5'
p8
tp9
F6.5
s(S'F5'
p10
g7
tp11
F12.800000000000001
s(S'F6'
p12
g7
tp13
F19.199999999999999
s(S'H2'
p14
S'C7'
p15
tp16
F2.7000000000000002
s(g14
S'C2'
p17
tp18
F7.4000000000000004
s(S'F2'
p19
g2
tp20
F19.300000000000001
s(g2
S'C3'
p21
tp22
F7.2999999999999998
s(g7
S'C1'
p23
tp24
F2.7000000000000002
s(S'F3'
p25
S'H3'
p26
tp27
F15.1
s(S'F1'
p28
g26
tp29
F18.600000000000001
s(g26
g3
tp30
F4
s(S'F0'
p31
g14
tp32
F15.699999999999999
s(g2
g15
tp33
F5.4000000000000004
s(g5
g7
tp34
F10.5
s(S'F7'
p35
g26
tp36
F14.199999999999999
s(g26
S'C0'
p37
tp38
F4.0999999999999996
s(g10
g2
tp39
F17.100000000000001
s(g12
g14
tp40
F12.6
s(g14
g23
tp41
F7.9000000000000004
s(g19
g7
tp42
F11
s(g2
g17
tp43
F8.5999999999999996
s(g7
S'C6'
p44
tp45
F2.6000000000000001
s(g25
g14
tp46
F15.800000000000001
s(g28
g14
tp47
F19.399999999999999
s(g26
g8
tp48
F6.5
s(g31
g26
tp49
F11.199999999999999
s(g14
g44
tp50
F6.5999999999999996
s(g2
g44
tp51
F4.5999999999999996
s(g7
g17
tp52
F6.0999999999999996
s(g35
g14
tp53
F14.699999999999999
s(g26
g23
tp54
F9.5
s(g10
g26
tp55
F10.300000000000001
s(g12
g26
tp56
F17.899999999999999
s(g5
g14
tp57
F19.800000000000001
s(g19
g14
tp58
F10.6
s(g7
g15
tp59
F4.2999999999999998
s(g25
g7
tp60
F13.800000000000001
s(g26
g44
tp61
F8.1999999999999993
s(g14
g21
tp62
F3.7000000000000002
s(g31
g2
tp63
F10.800000000000001
s(g2
g23
tp64
F9.5999999999999996
s(g7
g21
tp65
F8.5
s(g35
g7
tp66
F16.899999999999999
s(g28
g7
tp67
F12.199999999999999
s(g14
g37
tp68
F6
s(g10
g14
tp69
F17.300000000000001
s(g2
g8
tp70
F7.2999999999999998
s(g5
g26
tp71
F12.699999999999999
s(g26
g17
tp72
F4.2000000000000002
s(g19
g26
tp73
F16.5
s(g14
g8
tp74
F6.7000000000000002
s(g7
g3
tp75
F5.9000000000000004
s(g25
g2
tp76
F15.5
s(g12
g2
tp77
F15.1
s(g26
g15
tp78
F8.4000000000000004
s(g14
g3
tp79
F7.2000000000000002
s(g31
g7
tp80
F14.6
s(g2
g37
tp81
F6.5999999999999996
s(g7
g37
tp82
F9.1999999999999993
s(g35
g2
tp83
F14
s(g28
g2
tp84
F16.100000000000001
s(g26
g21
tp85
F8.5
s.(dp1
S'F0'
p2
I114
sS'F1'
p3
I24
sS'F2'
p4
I38
sS'F3'
p5
I68
sS'F4'
p6
I42
sS'F5'
p7
I41
sS'F6'
p8
I79
sS'F7'
p9
I65
s.(dp1
(S'H0'
p2
S'C4'
p3
tp4
I10
s(S'F4'
p5
g2
tp6
I10
s(S'H1'
p7
S'C5'
p8
tp9
I13
s(S'F5'
p10
g7
tp11
I4
s(S'F6'
p12
g7
tp13
I19
s(S'H2'
p14
S'C7'
p15
tp16
I7
s(g14
S'C2'
p17
tp18
I8
s(S'F2'
p19
g2
tp20
I5
s(g2
S'C3'
p21
tp22
I12
s(g7
S'C1'
p23
tp24
I16
s(S'F3'
p25
S'H3'
p26
tp27
I9
s(S'F1'
p28
g26
tp29
I6
s(g26
g3
tp30
I14
s(S'F0'
p31
g14
tp32
I30
s(g2
g15
tp33
I12
s(g5
g7
tp34
I12
s(S'F7'
p35
g26
tp36
I10
s(g26
S'C0'
p37
tp38
I15
s(g10
g2
tp39
I2
s(g12
g14
tp40
I18
s(g14
g23
tp41
I8
s(g19
g7
tp42
I4
s(g2
g17
tp43
I11
s(g7
S'C6'
p44
tp45
I9
s(g25
g14
tp46
I6
s(g28
g14
tp47
I5
s(g26
g8
tp48
I13
s(g31
g26
tp49
I34
s(g14
g44
tp50
I12
s(g2
g44
tp51
I12
s(g7
g17
tp52
I9
s(g35
g14
tp53
I12
s(g26
g23
tp54
I10
s(g10
g26
tp55
I7
s(g12
g26
tp56
I8
s(g5
g14
tp57
I3
s(g19
g14
tp58
I8
s(g7
g15
tp59
I9
s(g25
g7
tp60
I11
s(g26
g44
tp61
I15
s(g14
g21
tp62
I14
s(g31
g2
tp63
I20
s(g2
g23
tp64
I11
s(g7
g21
tp65
I12
s(g35
g7
tp66
I12
s(g28
g7
tp67
I5
s(g14
g37
tp68
I10
s(g10
g14
tp69
I7
s(g2
g8
tp70
I9
s(g5
g26
tp71
I11
s(g26
g17
tp72
I11
s(g19
g26
tp73
I7
s(g14
g8
tp74
I12
s(g7
g3
tp75
I14
s(g25
g2
tp76
I8
s(g12
g2
tp77
I17
s(g26
g15
tp78
I16
s(g14
g3
tp79
I7
s(g31
g7
tp80
I23
s(g2
g37
tp81
I12
s(g7
g37
tp82
I12
s(g35
g2
tp83
I14
s(g28
g2
tp84
I7
s(g26
g21
tp85
I10
s.(dp1
S'C3'
p2
F26.5
sS'C2'
p3
F23.199999999999999
sS'C1'
p4
F44.200000000000003
sS'C0'
p5
F20.899999999999999
sS'C7'
p6
F28.399999999999999
sS'C6'
p7
F46.299999999999997
sS'C5'
p8
F29.899999999999999
sS'C4'
p9
F49.100000000000001
s.(dp1
S'C3'
p2
F199.40000000000001
sS'C2'
p3
F268.19999999999999
sS'C1'
p4
F211
sS'C0'
p5
F272.5
sS'C7'
p6
F305.69999999999999
sS'C6'
p7
F371.69999999999999
sS'C5'
p8
F201
sS'C4'
p9
F281.5
s.(dp1
S'C3'
p2
F49.200000000000003
sS'C2'
p3
F63.899999999999999
sS'C1'
p4
F43.200000000000003
sS'C0'
p5
F55.700000000000003
sS'C7'
p6
F85.200000000000003
sS'C6'
p7
F45.100000000000001
sS'C5'
p8
F48.299999999999997
sS'C4'
p9
F35.200000000000003
s.(dp1
S'C3'
p2
F0.23000000000000001
sS'C2'
p3
F0.29999999999999999
sS'C1'
p4
F0.26000000000000001
sS'C0'
p5
F0.26000000000000001
sS'C7'
p6
F0.27000000000000002
sS'C6'
p7
F0.25
sS'C5'
p8
F0.27000000000000002
sS'C4'
p9
F0.27000000000000002
s.